target datalayout = "e-m:e-p270:32:32-p271:32:32-p272:64:64-i64:64-i128:128-f80:128-n8:16:32:64-S128"
target triple = "x86_64-pc-linux-gnu"

%struct.VLCElem = type { %union.anon.1 }
%union.anon.1 = type { %struct.anon }
%struct.anon = type { i16, i16 }
%struct.GetBitContext = type { ptr, ptr, i32, i32, i32 }

; Function Attrs: alwaysinline nounwind willreturn memory(none) uwtable
define internal i32 @av_bswap32(i32 noundef %0) #7 {
  %2 = alloca i32, align 4
  store i32 %0, ptr %2, align 4, !tbaa !36
  %3 = load i32, ptr %2, align 4, !tbaa !36
  %4 = shl i32 %3, 8
  %5 = and i32 %4, 65280
  %6 = load i32, ptr %2, align 4, !tbaa !36
  %7 = lshr i32 %6, 8
  %8 = and i32 %7, 255
  %9 = or i32 %5, %8
  %10 = shl i32 %9, 16
  %11 = load i32, ptr %2, align 4, !tbaa !36
  %12 = lshr i32 %11, 16
  %13 = shl i32 %12, 8
  %14 = and i32 %13, 65280
  %15 = load i32, ptr %2, align 4, !tbaa !36
  %16 = lshr i32 %15, 16
  %17 = lshr i32 %16, 8
  %18 = and i32 %17, 255
  %19 = or i32 %14, %18
  %20 = or i32 %10, %19
  ret i32 %20
}

; Function Attrs: alwaysinline nounwind uwtable
define internal i32 @get_vlc2(ptr noundef %0, ptr noundef %1, i32 noundef %2, i32 noundef %3) #10 {
  %5 = alloca ptr, align 8
  %6 = alloca ptr, align 8
  %7 = alloca i32, align 4
  %8 = alloca i32, align 4
  %9 = alloca i32, align 4
  %10 = alloca i32, align 4
  %11 = alloca i32, align 4
  %12 = alloca i32, align 4
  %13 = alloca i32, align 4
  %14 = alloca i32, align 4
  %15 = alloca i32, align 4
  store ptr %0, ptr %5, align 8, !tbaa !92
  store ptr %1, ptr %6, align 8, !tbaa !75
  store i32 %2, ptr %7, align 4, !tbaa !36
  store i32 %3, ptr %8, align 4, !tbaa !36
  call void @llvm.lifetime.start.p0(i64 4, ptr %9) #11
  call void @llvm.lifetime.start.p0(i64 4, ptr %10) #11
  %16 = load ptr, ptr %5, align 8, !tbaa !92
  %17 = getelementptr inbounds nuw %struct.GetBitContext, ptr %16, i32 0, i32 2
  %18 = load i32, ptr %17, align 8, !tbaa !124
  store i32 %18, ptr %10, align 4, !tbaa !36
  call void @llvm.lifetime.start.p0(i64 4, ptr %11) #11
  call void @llvm.lifetime.start.p0(i64 4, ptr %12) #11
  %19 = load ptr, ptr %5, align 8, !tbaa !92
  %20 = getelementptr inbounds nuw %struct.GetBitContext, ptr %19, i32 0, i32 4
  %21 = load i32, ptr %20, align 8, !tbaa !134
  store i32 %21, ptr %12, align 4, !tbaa !36
  %22 = load ptr, ptr %5, align 8, !tbaa !92
  %23 = getelementptr inbounds nuw %struct.GetBitContext, ptr %22, i32 0, i32 0
  %24 = load ptr, ptr %23, align 8, !tbaa !132
  %25 = load i32, ptr %10, align 4, !tbaa !36
  %26 = lshr i32 %25, 3
  %27 = zext i32 %26 to i64
  %28 = getelementptr inbounds nuw i8, ptr %24, i64 %27
  %29 = load i32, ptr %28, align 1, !tbaa !48
  %30 = call i32 @av_bswap32(i32 noundef %29) #12
  %31 = load i32, ptr %10, align 4, !tbaa !36
  %32 = and i32 %31, 7
  %33 = shl i32 %30, %32
  %34 = lshr i32 %33, 0
  store i32 %34, ptr %11, align 4, !tbaa !36
  br label %35

35:                                               ; preds = %4
  call void @llvm.lifetime.start.p0(i64 4, ptr %13) #11
  call void @llvm.lifetime.start.p0(i64 4, ptr %14) #11
  call void @llvm.lifetime.start.p0(i64 4, ptr %15) #11
  %36 = load i32, ptr %11, align 4, !tbaa !36
  %37 = load i32, ptr %7, align 4, !tbaa !36
  %38 = sub nsw i32 32, %37
  %39 = lshr i32 %36, %38
  store i32 %39, ptr %15, align 4, !tbaa !36
  %40 = load ptr, ptr %6, align 8, !tbaa !75
  %41 = load i32, ptr %15, align 4, !tbaa !36
  %42 = zext i32 %41 to i64
  %43 = getelementptr inbounds nuw %struct.VLCElem, ptr %40, i64 %42
  %44 = getelementptr inbounds nuw %struct.VLCElem, ptr %43, i32 0, i32 0
  %45 = getelementptr inbounds nuw %struct.anon, ptr %44, i32 0, i32 0
  %46 = load i16, ptr %45, align 2, !tbaa !48
  %47 = sext i16 %46 to i32
  store i32 %47, ptr %9, align 4, !tbaa !36
  %48 = load ptr, ptr %6, align 8, !tbaa !75
  %49 = load i32, ptr %15, align 4, !tbaa !36
  %50 = zext i32 %49 to i64
  %51 = getelementptr inbounds nuw %struct.VLCElem, ptr %48, i64 %50
  %52 = getelementptr inbounds nuw %struct.VLCElem, ptr %51, i32 0, i32 0
  %53 = getelementptr inbounds nuw %struct.anon, ptr %52, i32 0, i32 1
  %54 = load i16, ptr %53, align 2, !tbaa !48
  %55 = sext i16 %54 to i32
  store i32 %55, ptr %13, align 4, !tbaa !36
  %56 = load i32, ptr %8, align 4, !tbaa !36
  %57 = icmp sgt i32 %56, 1
  br i1 %57, label %58, label %169

58:                                               ; preds = %35
  %59 = load i32, ptr %13, align 4, !tbaa !36
  %60 = icmp slt i32 %59, 0
  br i1 %60, label %61, label %169

61:                                               ; preds = %58
  %62 = load i32, ptr %12, align 4, !tbaa !36
  %63 = load i32, ptr %10, align 4, !tbaa !36
  %64 = load i32, ptr %7, align 4, !tbaa !36
  %65 = add i32 %63, %64
  %66 = icmp ugt i32 %62, %65
  br i1 %66, label %67, label %71

67:                                               ; preds = %61
  %68 = load i32, ptr %10, align 4, !tbaa !36
  %69 = load i32, ptr %7, align 4, !tbaa !36
  %70 = add i32 %68, %69
  br label %73

71:                                               ; preds = %61
  %72 = load i32, ptr %12, align 4, !tbaa !36
  br label %73

73:                                               ; preds = %71, %67
  %74 = phi i32 [ %70, %67 ], [ %72, %71 ]
  store i32 %74, ptr %10, align 4, !tbaa !36
  %75 = load ptr, ptr %5, align 8, !tbaa !92
  %76 = getelementptr inbounds nuw %struct.GetBitContext, ptr %75, i32 0, i32 0
  %77 = load ptr, ptr %76, align 8, !tbaa !132
  %78 = load i32, ptr %10, align 4, !tbaa !36
  %79 = lshr i32 %78, 3
  %80 = zext i32 %79 to i64
  %81 = getelementptr inbounds nuw i8, ptr %77, i64 %80
  %82 = load i32, ptr %81, align 1, !tbaa !48
  %83 = call i32 @av_bswap32(i32 noundef %82) #12
  %84 = load i32, ptr %10, align 4, !tbaa !36
  %85 = and i32 %84, 7
  %86 = shl i32 %83, %85
  %87 = lshr i32 %86, 0
  store i32 %87, ptr %11, align 4, !tbaa !36
  %88 = load i32, ptr %13, align 4, !tbaa !36
  %89 = sub nsw i32 0, %88
  store i32 %89, ptr %14, align 4, !tbaa !36
  %90 = load i32, ptr %11, align 4, !tbaa !36
  %91 = load i32, ptr %14, align 4, !tbaa !36
  %92 = sub nsw i32 32, %91
  %93 = lshr i32 %90, %92
  %94 = load i32, ptr %9, align 4, !tbaa !36
  %95 = add i32 %93, %94
  store i32 %95, ptr %15, align 4, !tbaa !36
  %96 = load ptr, ptr %6, align 8, !tbaa !75
  %97 = load i32, ptr %15, align 4, !tbaa !36
  %98 = zext i32 %97 to i64
  %99 = getelementptr inbounds nuw %struct.VLCElem, ptr %96, i64 %98
  %100 = getelementptr inbounds nuw %struct.VLCElem, ptr %99, i32 0, i32 0
  %101 = getelementptr inbounds nuw %struct.anon, ptr %100, i32 0, i32 0
  %102 = load i16, ptr %101, align 2, !tbaa !48
  %103 = sext i16 %102 to i32
  store i32 %103, ptr %9, align 4, !tbaa !36
  %104 = load ptr, ptr %6, align 8, !tbaa !75
  %105 = load i32, ptr %15, align 4, !tbaa !36
  %106 = zext i32 %105 to i64
  %107 = getelementptr inbounds nuw %struct.VLCElem, ptr %104, i64 %106
  %108 = getelementptr inbounds nuw %struct.VLCElem, ptr %107, i32 0, i32 0
  %109 = getelementptr inbounds nuw %struct.anon, ptr %108, i32 0, i32 1
  %110 = load i16, ptr %109, align 2, !tbaa !48
  %111 = sext i16 %110 to i32
  store i32 %111, ptr %13, align 4, !tbaa !36
  %112 = load i32, ptr %8, align 4, !tbaa !36
  %113 = icmp sgt i32 %112, 2
  br i1 %113, label %114, label %168

114:                                              ; preds = %73
  %115 = load i32, ptr %13, align 4, !tbaa !36
  %116 = icmp slt i32 %115, 0
  br i1 %116, label %117, label %168

117:                                              ; preds = %114
  %118 = load i32, ptr %12, align 4, !tbaa !36
  %119 = load i32, ptr %10, align 4, !tbaa !36
  %120 = load i32, ptr %14, align 4, !tbaa !36
  %121 = add i32 %119, %120
  %122 = icmp ugt i32 %118, %121
  br i1 %122, label %123, label %127

123:                                              ; preds = %117
  %124 = load i32, ptr %10, align 4, !tbaa !36
  %125 = load i32, ptr %14, align 4, !tbaa !36
  %126 = add i32 %124, %125
  br label %129

127:                                              ; preds = %117
  %128 = load i32, ptr %12, align 4, !tbaa !36
  br label %129

129:                                              ; preds = %127, %123
  %130 = phi i32 [ %126, %123 ], [ %128, %127 ]
  store i32 %130, ptr %10, align 4, !tbaa !36
  %131 = load ptr, ptr %5, align 8, !tbaa !92
  %132 = getelementptr inbounds nuw %struct.GetBitContext, ptr %131, i32 0, i32 0
  %133 = load ptr, ptr %132, align 8, !tbaa !132
  %134 = load i32, ptr %10, align 4, !tbaa !36
  %135 = lshr i32 %134, 3
  %136 = zext i32 %135 to i64
  %137 = getelementptr inbounds nuw i8, ptr %133, i64 %136
  %138 = load i32, ptr %137, align 1, !tbaa !48
  %139 = call i32 @av_bswap32(i32 noundef %138) #12
  %140 = load i32, ptr %10, align 4, !tbaa !36
  %141 = and i32 %140, 7
  %142 = shl i32 %139, %141
  %143 = lshr i32 %142, 0
  store i32 %143, ptr %11, align 4, !tbaa !36
  %144 = load i32, ptr %13, align 4, !tbaa !36
  %145 = sub nsw i32 0, %144
  store i32 %145, ptr %14, align 4, !tbaa !36
  %146 = load i32, ptr %11, align 4, !tbaa !36
  %147 = load i32, ptr %14, align 4, !tbaa !36
  %148 = sub nsw i32 32, %147
  %149 = lshr i32 %146, %148
  %150 = load i32, ptr %9, align 4, !tbaa !36
  %151 = add i32 %149, %150
  store i32 %151, ptr %15, align 4, !tbaa !36
  %152 = load ptr, ptr %6, align 8, !tbaa !75
  %153 = load i32, ptr %15, align 4, !tbaa !36
  %154 = zext i32 %153 to i64
  %155 = getelementptr inbounds nuw %struct.VLCElem, ptr %152, i64 %154
  %156 = getelementptr inbounds nuw %struct.VLCElem, ptr %155, i32 0, i32 0
  %157 = getelementptr inbounds nuw %struct.anon, ptr %156, i32 0, i32 0
  %158 = load i16, ptr %157, align 2, !tbaa !48
  %159 = sext i16 %158 to i32
  store i32 %159, ptr %9, align 4, !tbaa !36
  %160 = load ptr, ptr %6, align 8, !tbaa !75
  %161 = load i32, ptr %15, align 4, !tbaa !36
  %162 = zext i32 %161 to i64
  %163 = getelementptr inbounds nuw %struct.VLCElem, ptr %160, i64 %162
  %164 = getelementptr inbounds nuw %struct.VLCElem, ptr %163, i32 0, i32 0
  %165 = getelementptr inbounds nuw %struct.anon, ptr %164, i32 0, i32 1
  %166 = load i16, ptr %165, align 2, !tbaa !48
  %167 = sext i16 %166 to i32
  store i32 %167, ptr %13, align 4, !tbaa !36
  br label %168

168:                                              ; preds = %129, %114, %73
  br label %169

169:                                              ; preds = %168, %58, %35
  br label %170

170:                                              ; preds = %169
  %171 = load i32, ptr %13, align 4, !tbaa !36
  %172 = load i32, ptr %11, align 4, !tbaa !36
  %173 = shl i32 %172, %171
  store i32 %173, ptr %11, align 4, !tbaa !36
  %174 = load i32, ptr %12, align 4, !tbaa !36
  %175 = load i32, ptr %10, align 4, !tbaa !36
  %176 = load i32, ptr %13, align 4, !tbaa !36
  %177 = add i32 %175, %176
  %178 = icmp ugt i32 %174, %177
  br i1 %178, label %179, label %183

179:                                              ; preds = %170
  %180 = load i32, ptr %10, align 4, !tbaa !36
  %181 = load i32, ptr %13, align 4, !tbaa !36
  %182 = add i32 %180, %181
  br label %185

183:                                              ; preds = %170
  %184 = load i32, ptr %12, align 4, !tbaa !36
  br label %185

185:                                              ; preds = %183, %179
  %186 = phi i32 [ %182, %179 ], [ %184, %183 ]
  store i32 %186, ptr %10, align 4, !tbaa !36
  br label %187

187:                                              ; preds = %185
  br label %188

188:                                              ; preds = %187
  call void @llvm.lifetime.end.p0(i64 4, ptr %15) #11
  call void @llvm.lifetime.end.p0(i64 4, ptr %14) #11
  call void @llvm.lifetime.end.p0(i64 4, ptr %13) #11
  br label %189

189:                                              ; preds = %188
  br label %190

190:                                              ; preds = %189
  %191 = load i32, ptr %10, align 4, !tbaa !36
  %192 = load ptr, ptr %5, align 8, !tbaa !92
  %193 = getelementptr inbounds nuw %struct.GetBitContext, ptr %192, i32 0, i32 2
  store i32 %191, ptr %193, align 8, !tbaa !124
  %194 = load i32, ptr %9, align 4, !tbaa !36
  call void @llvm.lifetime.end.p0(i64 4, ptr %12) #11
  call void @llvm.lifetime.end.p0(i64 4, ptr %11) #11
  call void @llvm.lifetime.end.p0(i64 4, ptr %10) #11
  call void @llvm.lifetime.end.p0(i64 4, ptr %9) #11
  ret i32 %194
}

; Function Attrs: nounwind uwtable
define internal i32 @decode_super_cbp(ptr noundef %0, ptr noundef %1) #1 {
  %3 = alloca ptr, align 8
  %4 = alloca ptr, align 8
  %5 = alloca i32, align 4
  %6 = alloca i32, align 4
  %7 = alloca i32, align 4
  %8 = alloca i32, align 4
  store ptr %0, ptr %3, align 8, !tbaa !92
  store ptr %1, ptr %4, align 8, !tbaa !277
  call void @llvm.lifetime.start.p0(i64 4, ptr %5) #11
  %9 = load ptr, ptr %3, align 8, !tbaa !92
  %10 = load ptr, ptr %4, align 8, !tbaa !277
  %11 = getelementptr inbounds ptr, ptr %10, i64 0
  %12 = load ptr, ptr %11, align 8, !tbaa !75
  %13 = call i32 @get_vlc2(ptr noundef %9, ptr noundef %12, i32 noundef 9, i32 noundef 2)
  store i32 %13, ptr %5, align 4, !tbaa !36
  call void @llvm.lifetime.start.p0(i64 4, ptr %6) #11
  %14 = load ptr, ptr %3, align 8, !tbaa !92
  %15 = load ptr, ptr %4, align 8, !tbaa !277
  %16 = getelementptr inbounds ptr, ptr %15, i64 1
  %17 = load ptr, ptr %16, align 8, !tbaa !75
  %18 = call i32 @get_vlc2(ptr noundef %14, ptr noundef %17, i32 noundef 9, i32 noundef 2)
  store i32 %18, ptr %6, align 4, !tbaa !36
  call void @llvm.lifetime.start.p0(i64 4, ptr %7) #11
  %19 = load ptr, ptr %3, align 8, !tbaa !92
  %20 = load ptr, ptr %4, align 8, !tbaa !277
  %21 = getelementptr inbounds ptr, ptr %20, i64 2
  %22 = load ptr, ptr %21, align 8, !tbaa !75
  %23 = call i32 @get_vlc2(ptr noundef %19, ptr noundef %22, i32 noundef 9, i32 noundef 2)
  store i32 %23, ptr %7, align 4, !tbaa !36
  call void @llvm.lifetime.start.p0(i64 4, ptr %8) #11
  %24 = load ptr, ptr %3, align 8, !tbaa !92
  %25 = load ptr, ptr %4, align 8, !tbaa !277
  %26 = getelementptr inbounds ptr, ptr %25, i64 3
  %27 = load ptr, ptr %26, align 8, !tbaa !75
  %28 = call i32 @get_vlc2(ptr noundef %24, ptr noundef %27, i32 noundef 9, i32 noundef 2)
  store i32 %28, ptr %8, align 4, !tbaa !36
  %29 = load i32, ptr %5, align 4, !tbaa !36
  %30 = and i32 %29, 3
  %31 = shl i32 %30, 0
  %32 = add nsw i32 0, %31
  %33 = load i32, ptr %5, align 4, !tbaa !36
  %34 = and i32 %33, 12
  %35 = shl i32 %34, 2
  %36 = add nsw i32 %32, %35
  %37 = load i32, ptr %5, align 4, !tbaa !36
  %38 = and i32 %37, 16
  %39 = shl i32 %38, 12
  %40 = add nsw i32 %36, %39
  %41 = load i32, ptr %5, align 4, !tbaa !36
  %42 = and i32 %41, 32
  %43 = shl i32 %42, 15
  %44 = add nsw i32 %40, %43
  %45 = load i32, ptr %6, align 4, !tbaa !36
  %46 = and i32 %45, 3
  %47 = shl i32 %46, 2
  %48 = add nsw i32 %44, %47
  %49 = load i32, ptr %6, align 4, !tbaa !36
  %50 = and i32 %49, 12
  %51 = shl i32 %50, 4
  %52 = add nsw i32 %48, %51
  %53 = load i32, ptr %6, align 4, !tbaa !36
  %54 = and i32 %53, 16
  %55 = shl i32 %54, 13
  %56 = add nsw i32 %52, %55
  %57 = load i32, ptr %6, align 4, !tbaa !36
  %58 = and i32 %57, 32
  %59 = shl i32 %58, 16
  %60 = add nsw i32 %56, %59
  %61 = load i32, ptr %7, align 4, !tbaa !36
  %62 = and i32 %61, 3
  %63 = shl i32 %62, 8
  %64 = add nsw i32 %60, %63
  %65 = load i32, ptr %7, align 4, !tbaa !36
  %66 = and i32 %65, 12
  %67 = shl i32 %66, 10
  %68 = add nsw i32 %64, %67
  %69 = load i32, ptr %7, align 4, !tbaa !36
  %70 = and i32 %69, 16
  %71 = shl i32 %70, 14
  %72 = add nsw i32 %68, %71
  %73 = load i32, ptr %7, align 4, !tbaa !36
  %74 = and i32 %73, 32
  %75 = shl i32 %74, 17
  %76 = add nsw i32 %72, %75
  %77 = load i32, ptr %8, align 4, !tbaa !36
  %78 = and i32 %77, 3
  %79 = shl i32 %78, 10
  %80 = add nsw i32 %76, %79
  %81 = load i32, ptr %8, align 4, !tbaa !36
  %82 = and i32 %81, 12
  %83 = shl i32 %82, 12
  %84 = add nsw i32 %80, %83
  %85 = load i32, ptr %8, align 4, !tbaa !36
  %86 = and i32 %85, 16
  %87 = shl i32 %86, 15
  %88 = add nsw i32 %84, %87
  %89 = load i32, ptr %8, align 4, !tbaa !36
  %90 = and i32 %89, 32
  %91 = shl i32 %90, 18
  %92 = add nsw i32 %88, %91
  call void @llvm.lifetime.end.p0(i64 4, ptr %8) #11
  call void @llvm.lifetime.end.p0(i64 4, ptr %7) #11
  call void @llvm.lifetime.end.p0(i64 4, ptr %6) #11
  call void @llvm.lifetime.end.p0(i64 4, ptr %5) #11
  ret i32 %92
}