; Function Attrs: mustprogress nofree norecurse nosync nounwind willreturn memory(read, argmem: readwrite, inaccessiblemem: none) uwtable
define internal fastcc range(i32 0, 16777216) i32 @decode_super_cbp(ptr noundef nonnull captures(none) %0, ptr noundef readonly captures(none) %1) unnamed_addr #8 {
  %3 = load ptr, ptr %1, align 8, !tbaa !84
  %4 = getelementptr inbounds nuw i8, ptr %0, i64 16
  %5 = load i32, ptr %4, align 8, !tbaa !51
  %6 = getelementptr inbounds nuw i8, ptr %0, i64 24
  %7 = load i32, ptr %6, align 8, !tbaa !46
  %8 = load ptr, ptr %0, align 8, !tbaa !43
  %9 = lshr i32 %5, 3
  %10 = zext nneg i32 %9 to i64
  %11 = getelementptr inbounds nuw i8, ptr %8, i64 %10
  %12 = load i32, ptr %11, align 1, !tbaa !42
  %13 = tail call i32 @llvm.bswap.i32(i32 %12)
  %14 = and i32 %5, 7
  %15 = shl i32 %13, %14
  %16 = lshr i32 %15, 23
  %17 = zext nneg i32 %16 to i64
  %18 = getelementptr inbounds nuw %struct.VLCElem, ptr %3, i64 %17
  %19 = load i16, ptr %18, align 2, !tbaa !42
  %20 = sext i16 %19 to i32
  %21 = getelementptr inbounds nuw i8, ptr %18, i64 2
  %22 = load i16, ptr %21, align 2, !tbaa !42
  %23 = sext i16 %22 to i32
  %24 = icmp slt i16 %22, 0
  br i1 %24, label %25, label %get_vlc2.exit

25:                                               ; preds = %2
  %26 = add i32 %5, 9
  %27 = tail call i32 @llvm.umin.i32(i32 %7, i32 %26)
  %28 = lshr i32 %27, 3
  %29 = zext nneg i32 %28 to i64
  %30 = getelementptr inbounds nuw i8, ptr %8, i64 %29
  %31 = load i32, ptr %30, align 1, !tbaa !42
  %32 = tail call i32 @llvm.bswap.i32(i32 %31)
  %33 = and i32 %27, 7
  %34 = shl i32 %32, %33
  %35 = add nsw i32 %23, 32
  %36 = lshr i32 %34, %35
  %37 = add i32 %36, %20
  %38 = zext i32 %37 to i64
  %39 = getelementptr inbounds nuw %struct.VLCElem, ptr %3, i64 %38
  %40 = load i16, ptr %39, align 2, !tbaa !42
  %41 = sext i16 %40 to i32
  %42 = getelementptr inbounds nuw i8, ptr %39, i64 2
  %43 = load i16, ptr %42, align 2, !tbaa !42
  %44 = sext i16 %43 to i32
  br label %get_vlc2.exit

get_vlc2.exit:                                    ; preds = %2, %25
  %.064.i = phi i32 [ %27, %25 ], [ %5, %2 ]
  %.062.i = phi i32 [ %41, %25 ], [ %20, %2 ]
  %.0.i = phi i32 [ %44, %25 ], [ %23, %2 ]
  %45 = add i32 %.0.i, %.064.i
  %46 = tail call i32 @llvm.umin.i32(i32 %7, i32 %45)
  store i32 %46, ptr %4, align 8, !tbaa !51
  %47 = getelementptr inbounds nuw i8, ptr %1, i64 8
  %48 = load ptr, ptr %47, align 8, !tbaa !84
  %49 = lshr i32 %46, 3
  %50 = zext nneg i32 %49 to i64
  %51 = getelementptr inbounds nuw i8, ptr %8, i64 %50
  %52 = load i32, ptr %51, align 1, !tbaa !42
  %53 = tail call i32 @llvm.bswap.i32(i32 %52)
  %54 = and i32 %46, 7
  %55 = shl i32 %53, %54
  %56 = lshr i32 %55, 23
  %57 = zext nneg i32 %56 to i64
  %58 = getelementptr inbounds nuw %struct.VLCElem, ptr %48, i64 %57
  %59 = load i16, ptr %58, align 2, !tbaa !42
  %60 = sext i16 %59 to i32
  %61 = getelementptr inbounds nuw i8, ptr %58, i64 2
  %62 = load i16, ptr %61, align 2, !tbaa !42
  %63 = sext i16 %62 to i32
  %64 = icmp slt i16 %62, 0
  br i1 %64, label %65, label %get_vlc2.exit26

65:                                               ; preds = %get_vlc2.exit
  %66 = add i32 %46, 9
  %67 = tail call i32 @llvm.umin.i32(i32 %7, i32 %66)
  %68 = lshr i32 %67, 3
  %69 = zext nneg i32 %68 to i64
  %70 = getelementptr inbounds nuw i8, ptr %8, i64 %69
  %71 = load i32, ptr %70, align 1, !tbaa !42
  %72 = tail call i32 @llvm.bswap.i32(i32 %71)
  %73 = and i32 %67, 7
  %74 = shl i32 %72, %73
  %75 = add nsw i32 %63, 32
  %76 = lshr i32 %74, %75
  %77 = add i32 %76, %60
  %78 = zext i32 %77 to i64
  %79 = getelementptr inbounds nuw %struct.VLCElem, ptr %48, i64 %78
  %80 = load i16, ptr %79, align 2, !tbaa !42
  %81 = sext i16 %80 to i32
  %82 = getelementptr inbounds nuw i8, ptr %79, i64 2
  %83 = load i16, ptr %82, align 2, !tbaa !42
  %84 = sext i16 %83 to i32
  br label %get_vlc2.exit26

get_vlc2.exit26:                                  ; preds = %get_vlc2.exit, %65
  %.064.i23 = phi i32 [ %67, %65 ], [ %46, %get_vlc2.exit ]
  %.062.i24 = phi i32 [ %81, %65 ], [ %60, %get_vlc2.exit ]
  %.0.i25 = phi i32 [ %84, %65 ], [ %63, %get_vlc2.exit ]
  %85 = add i32 %.0.i25, %.064.i23
  %86 = tail call i32 @llvm.umin.i32(i32 %7, i32 %85)
  store i32 %86, ptr %4, align 8, !tbaa !51
  %87 = getelementptr inbounds nuw i8, ptr %1, i64 16
  %88 = load ptr, ptr %87, align 8, !tbaa !84
  %89 = lshr i32 %86, 3
  %90 = zext nneg i32 %89 to i64
  %91 = getelementptr inbounds nuw i8, ptr %8, i64 %90
  %92 = load i32, ptr %91, align 1, !tbaa !42
  %93 = tail call i32 @llvm.bswap.i32(i32 %92)
  %94 = and i32 %86, 7
  %95 = shl i32 %93, %94
  %96 = lshr i32 %95, 23
  %97 = zext nneg i32 %96 to i64
  %98 = getelementptr inbounds nuw %struct.VLCElem, ptr %88, i64 %97
  %99 = load i16, ptr %98, align 2, !tbaa !42
  %100 = sext i16 %99 to i32
  %101 = getelementptr inbounds nuw i8, ptr %98, i64 2
  %102 = load i16, ptr %101, align 2, !tbaa !42
  %103 = sext i16 %102 to i32
  %104 = icmp slt i16 %102, 0
  br i1 %104, label %105, label %get_vlc2.exit30

105:                                              ; preds = %get_vlc2.exit26
  %106 = add i32 %86, 9
  %107 = tail call i32 @llvm.umin.i32(i32 %7, i32 %106)
  %108 = lshr i32 %107, 3
  %109 = zext nneg i32 %108 to i64
  %110 = getelementptr inbounds nuw i8, ptr %8, i64 %109
  %111 = load i32, ptr %110, align 1, !tbaa !42
  %112 = tail call i32 @llvm.bswap.i32(i32 %111)
  %113 = and i32 %107, 7
  %114 = shl i32 %112, %113
  %115 = add nsw i32 %103, 32
  %116 = lshr i32 %114, %115
  %117 = add i32 %116, %100
  %118 = zext i32 %117 to i64
  %119 = getelementptr inbounds nuw %struct.VLCElem, ptr %88, i64 %118
  %120 = load i16, ptr %119, align 2, !tbaa !42
  %121 = sext i16 %120 to i32
  %122 = getelementptr inbounds nuw i8, ptr %119, i64 2
  %123 = load i16, ptr %122, align 2, !tbaa !42
  %124 = sext i16 %123 to i32
  br label %get_vlc2.exit30

get_vlc2.exit30:                                  ; preds = %get_vlc2.exit26, %105
  %.064.i27 = phi i32 [ %107, %105 ], [ %86, %get_vlc2.exit26 ]
  %.062.i28 = phi i32 [ %121, %105 ], [ %100, %get_vlc2.exit26 ]
  %.0.i29 = phi i32 [ %124, %105 ], [ %103, %get_vlc2.exit26 ]
  %125 = add i32 %.0.i29, %.064.i27
  %126 = tail call i32 @llvm.umin.i32(i32 %7, i32 %125)
  store i32 %126, ptr %4, align 8, !tbaa !51
  %127 = getelementptr inbounds nuw i8, ptr %1, i64 24
  %128 = load ptr, ptr %127, align 8, !tbaa !84
  %129 = lshr i32 %126, 3
  %130 = zext nneg i32 %129 to i64
  %131 = getelementptr inbounds nuw i8, ptr %8, i64 %130
  %132 = load i32, ptr %131, align 1, !tbaa !42
  %133 = tail call i32 @llvm.bswap.i32(i32 %132)
  %134 = and i32 %126, 7
  %135 = shl i32 %133, %134
  %136 = lshr i32 %135, 23
  %137 = zext nneg i32 %136 to i64
  %138 = getelementptr inbounds nuw %struct.VLCElem, ptr %128, i64 %137
  %139 = load i16, ptr %138, align 2, !tbaa !42
  %140 = sext i16 %139 to i32
  %141 = getelementptr inbounds nuw i8, ptr %138, i64 2
  %142 = load i16, ptr %141, align 2, !tbaa !42
  %143 = sext i16 %142 to i32
  %144 = icmp slt i16 %142, 0
  br i1 %144, label %145, label %get_vlc2.exit34

145:                                              ; preds = %get_vlc2.exit30
  %146 = add i32 %126, 9
  %147 = tail call i32 @llvm.umin.i32(i32 %7, i32 %146)
  %148 = lshr i32 %147, 3
  %149 = zext nneg i32 %148 to i64
  %150 = getelementptr inbounds nuw i8, ptr %8, i64 %149
  %151 = load i32, ptr %150, align 1, !tbaa !42
  %152 = tail call i32 @llvm.bswap.i32(i32 %151)
  %153 = and i32 %147, 7
  %154 = shl i32 %152, %153
  %155 = add nsw i32 %143, 32
  %156 = lshr i32 %154, %155
  %157 = add i32 %156, %140
  %158 = zext i32 %157 to i64
  %159 = getelementptr inbounds nuw %struct.VLCElem, ptr %128, i64 %158
  %160 = load i16, ptr %159, align 2, !tbaa !42
  %161 = sext i16 %160 to i32
  %162 = getelementptr inbounds nuw i8, ptr %159, i64 2
  %163 = load i16, ptr %162, align 2, !tbaa !42
  %164 = sext i16 %163 to i32
  br label %get_vlc2.exit34

get_vlc2.exit34:                                  ; preds = %get_vlc2.exit30, %145
  %.064.i31 = phi i32 [ %147, %145 ], [ %126, %get_vlc2.exit30 ]
  %.062.i32 = phi i32 [ %161, %145 ], [ %140, %get_vlc2.exit30 ]
  %.0.i33 = phi i32 [ %164, %145 ], [ %143, %get_vlc2.exit30 ]
  %165 = add i32 %.0.i33, %.064.i31
  %166 = tail call i32 @llvm.umin.i32(i32 %7, i32 %165)
  store i32 %166, ptr %4, align 8, !tbaa !51
  %167 = and i32 %.062.i, 3
  %168 = shl nsw i32 %.062.i, 2
  %169 = and i32 %168, 48
  %170 = shl nsw i32 %.062.i, 12
  %171 = and i32 %170, 65536
  %172 = shl nsw i32 %.062.i, 15
  %173 = and i32 %172, 1048576
  %174 = shl nsw i32 %.062.i24, 2
  %175 = and i32 %174, 12
  %176 = shl nsw i32 %.062.i24, 4
  %177 = and i32 %176, 192
  %178 = shl nsw i32 %.062.i24, 13
  %179 = and i32 %178, 131072
  %180 = shl nsw i32 %.062.i24, 16
  %181 = and i32 %180, 2097152
  %182 = shl nsw i32 %.062.i28, 8
  %183 = and i32 %182, 768
  %184 = shl nsw i32 %.062.i28, 10
  %185 = and i32 %184, 12288
  %186 = shl nsw i32 %.062.i28, 14
  %187 = and i32 %186, 262144
  %188 = shl i32 %.062.i28, 17
  %189 = and i32 %188, 4194304
  %190 = shl nsw i32 %.062.i32, 10
  %191 = and i32 %190, 3072
  %192 = shl nsw i32 %.062.i32, 12
  %193 = and i32 %192, 49152
  %194 = shl nsw i32 %.062.i32, 15
  %195 = and i32 %194, 524288
  %196 = shl i32 %.062.i32, 18
  %197 = and i32 %196, 8388608
  %198 = or disjoint i32 %169, %167
  %199 = or disjoint i32 %198, %171
  %200 = or disjoint i32 %199, %173
  %201 = or disjoint i32 %200, %175
  %202 = or disjoint i32 %201, %177
  %203 = or disjoint i32 %202, %179
  %204 = add nuw nsw i32 %203, %181
  %205 = add nuw nsw i32 %204, %183
  %206 = add nuw nsw i32 %205, %185
  %207 = add nuw nsw i32 %206, %187
  %208 = add nuw nsw i32 %207, %189
  %209 = add nuw nsw i32 %208, %191
  %210 = add nuw nsw i32 %209, %193
  %211 = add nuw nsw i32 %210, %195
  %212 = add nuw nsw i32 %211, %197
  ret i32 %212
}